target datalayout = "e-m:e-p270:32:32-p271:32:32-p272:64:64-i64:64-i128:128-f80:128-n8:16:32:64-S128"
target triple = "x86_64-pc-linux-gnu"

%struct.PlannerInfo = type { i32, ptr, ptr, i32, ptr, ptr, ptr, ptr, i32, ptr, ptr, ptr, ptr, ptr, ptr, ptr, ptr, i32, ptr, ptr, ptr, ptr, ptr, i8, ptr, ptr, ptr, ptr, ptr, i32, ptr, ptr, ptr, ptr, ptr, ptr, ptr, i32, ptr, ptr, ptr, i32, ptr, ptr, ptr, ptr, ptr, ptr, [8 x ptr], [8 x ptr], ptr, ptr, ptr, ptr, ptr, ptr, ptr, double, double, double, i32, i8, i8, i8, i8, i8, i8, i8, i32, ptr, ptr, i32, i8, i8, i32, ptr, ptr, ptr, ptr, ptr, ptr, i8, ptr }
%struct.Node = type { i32 }
%struct.Plan = type { i32, i32, double, double, double, i32, i8, i8, i8, i32, ptr, ptr, ptr, ptr, ptr, ptr, ptr }
%struct.Path = type { i32, i32, ptr, ptr, ptr, i8, i8, i32, double, i32, double, double, ptr }
%struct.ForEachState = type { ptr, i32 }
%struct.List = type { i32, i32, i32, ptr, [0 x %union.ListCell] }
%union.ListCell = type { ptr }
%struct.Limit = type { %struct.Plan, ptr, ptr, i32, i32, ptr, ptr, ptr }
%struct.QualCost = type { double, double }
%struct.PathTarget = type { i32, ptr, ptr, %struct.QualCost, i32, i32 }
%struct.MinMaxAggPath = type { %struct.Path, ptr, ptr }
%struct.MinMaxAggInfo = type { i32, i32, i32, ptr, ptr, ptr, double, ptr }
%struct.Query = type { i32, i32, i32, i64, i8, ptr, i32, i8, i8, i8, i8, i8, i8, i8, i8, i8, i8, i8, ptr, ptr, ptr, ptr, ptr, i32, ptr, ptr, i32, ptr, ptr, ptr, ptr, ptr, i8, ptr, ptr, ptr, ptr, ptr, ptr, ptr, i32, ptr, ptr, ptr, ptr, i32, i32 }
%struct.Result = type { %struct.Plan, ptr }

; Function Attrs: inlinehint nounwind uwtable
define internal ptr @newNode(i64 noundef %0, i32 noundef %1) #4 {
  %3 = alloca i64, align 8
  %4 = alloca i32, align 4
  %5 = alloca ptr, align 8
  store i64 %0, ptr %3, align 8
  store i32 %1, ptr %4, align 4
  call void @llvm.lifetime.start.p0(i64 8, ptr %5) #10
  %6 = load i64, ptr %3, align 8
  %7 = call ptr @palloc0(i64 noundef %6)
  store ptr %7, ptr %5, align 8
  %8 = load i32, ptr %4, align 4
  %9 = load ptr, ptr %5, align 8
  %10 = getelementptr inbounds nuw %struct.Node, ptr %9, i32 0, i32 0
  store i32 %8, ptr %10, align 4
  %11 = load ptr, ptr %5, align 8
  call void @llvm.lifetime.end.p0(i64 8, ptr %5) #10
  ret ptr %11
}

; Function Attrs: nounwind uwtable
define internal void @copy_generic_path_info(ptr noundef %0, ptr noundef %1) #0 {
  %3 = alloca ptr, align 8
  %4 = alloca ptr, align 8
  store ptr %0, ptr %3, align 8
  store ptr %1, ptr %4, align 8
  %5 = load ptr, ptr %4, align 8
  %6 = getelementptr inbounds nuw %struct.Path, ptr %5, i32 0, i32 9
  %7 = load i32, ptr %6, align 8
  %8 = load ptr, ptr %3, align 8
  %9 = getelementptr inbounds nuw %struct.Plan, ptr %8, i32 0, i32 1
  store i32 %7, ptr %9, align 4
  %10 = load ptr, ptr %4, align 8
  %11 = getelementptr inbounds nuw %struct.Path, ptr %10, i32 0, i32 10
  %12 = load double, ptr %11, align 8
  %13 = load ptr, ptr %3, align 8
  %14 = getelementptr inbounds nuw %struct.Plan, ptr %13, i32 0, i32 2
  store double %12, ptr %14, align 8
  %15 = load ptr, ptr %4, align 8
  %16 = getelementptr inbounds nuw %struct.Path, ptr %15, i32 0, i32 11
  %17 = load double, ptr %16, align 8
  %18 = load ptr, ptr %3, align 8
  %19 = getelementptr inbounds nuw %struct.Plan, ptr %18, i32 0, i32 3
  store double %17, ptr %19, align 8
  %20 = load ptr, ptr %4, align 8
  %21 = getelementptr inbounds nuw %struct.Path, ptr %20, i32 0, i32 8
  %22 = load double, ptr %21, align 8
  %23 = load ptr, ptr %3, align 8
  %24 = getelementptr inbounds nuw %struct.Plan, ptr %23, i32 0, i32 4
  store double %22, ptr %24, align 8
  %25 = load ptr, ptr %4, align 8
  %26 = getelementptr inbounds nuw %struct.Path, ptr %25, i32 0, i32 3
  %27 = load ptr, ptr %26, align 8
  %28 = getelementptr inbounds nuw %struct.PathTarget, ptr %27, i32 0, i32 4
  %29 = load i32, ptr %28, align 8
  %30 = load ptr, ptr %3, align 8
  %31 = getelementptr inbounds nuw %struct.Plan, ptr %30, i32 0, i32 5
  store i32 %29, ptr %31, align 8
  %32 = load ptr, ptr %4, align 8
  %33 = getelementptr inbounds nuw %struct.Path, ptr %32, i32 0, i32 5
  %34 = load i8, ptr %33, align 8, !range !4, !noundef !5
  %35 = trunc i8 %34 to i1
  %36 = load ptr, ptr %3, align 8
  %37 = getelementptr inbounds nuw %struct.Plan, ptr %36, i32 0, i32 6
  %38 = zext i1 %35 to i8
  store i8 %38, ptr %37, align 4
  %39 = load ptr, ptr %4, align 8
  %40 = getelementptr inbounds nuw %struct.Path, ptr %39, i32 0, i32 6
  %41 = load i8, ptr %40, align 1, !range !4, !noundef !5
  %42 = trunc i8 %41 to i1
  %43 = load ptr, ptr %3, align 8
  %44 = getelementptr inbounds nuw %struct.Plan, ptr %43, i32 0, i32 7
  %45 = zext i1 %42 to i8
  store i8 %45, ptr %44, align 1
  ret void
}

; Function Attrs: nounwind uwtable
define internal ptr @make_result(ptr noundef %0, ptr noundef %1, ptr noundef %2) #0 {
  %4 = alloca ptr, align 8
  %5 = alloca ptr, align 8
  %6 = alloca ptr, align 8
  %7 = alloca ptr, align 8
  %8 = alloca ptr, align 8
  store ptr %0, ptr %4, align 8
  store ptr %1, ptr %5, align 8
  store ptr %2, ptr %6, align 8
  call void @llvm.lifetime.start.p0(i64 8, ptr %7) #10
  %9 = call ptr @newNode(i64 noundef 112, i32 noundef 330)
  store ptr %9, ptr %7, align 8
  call void @llvm.lifetime.start.p0(i64 8, ptr %8) #10
  %10 = load ptr, ptr %7, align 8
  %11 = getelementptr inbounds nuw %struct.Result, ptr %10, i32 0, i32 0
  store ptr %11, ptr %8, align 8
  %12 = load ptr, ptr %4, align 8
  %13 = load ptr, ptr %8, align 8
  %14 = getelementptr inbounds nuw %struct.Plan, ptr %13, i32 0, i32 10
  store ptr %12, ptr %14, align 8
  %15 = load ptr, ptr %8, align 8
  %16 = getelementptr inbounds nuw %struct.Plan, ptr %15, i32 0, i32 11
  store ptr null, ptr %16, align 8
  %17 = load ptr, ptr %6, align 8
  %18 = load ptr, ptr %8, align 8
  %19 = getelementptr inbounds nuw %struct.Plan, ptr %18, i32 0, i32 12
  store ptr %17, ptr %19, align 8
  %20 = load ptr, ptr %8, align 8
  %21 = getelementptr inbounds nuw %struct.Plan, ptr %20, i32 0, i32 13
  store ptr null, ptr %21, align 8
  %22 = load ptr, ptr %5, align 8
  %23 = load ptr, ptr %7, align 8
  %24 = getelementptr inbounds nuw %struct.Result, ptr %23, i32 0, i32 1
  store ptr %22, ptr %24, align 8
  %25 = load ptr, ptr %7, align 8
  call void @llvm.lifetime.end.p0(i64 8, ptr %8) #10
  call void @llvm.lifetime.end.p0(i64 8, ptr %7) #10
  ret ptr %25
}

; Function Attrs: nounwind uwtable
define dso_local ptr @make_limit(ptr noundef %0, ptr noundef %1, ptr noundef %2, i32 noundef %3, i32 noundef %4, ptr noundef %5, ptr noundef %6, ptr noundef %7) #0 {
  %9 = alloca ptr, align 8
  %10 = alloca ptr, align 8
  %11 = alloca ptr, align 8
  %12 = alloca i32, align 4
  %13 = alloca i32, align 4
  %14 = alloca ptr, align 8
  %15 = alloca ptr, align 8
  %16 = alloca ptr, align 8
  %17 = alloca ptr, align 8
  %18 = alloca ptr, align 8
  store ptr %0, ptr %9, align 8
  store ptr %1, ptr %10, align 8
  store ptr %2, ptr %11, align 8
  store i32 %3, ptr %12, align 4
  store i32 %4, ptr %13, align 4
  store ptr %5, ptr %14, align 8
  store ptr %6, ptr %15, align 8
  store ptr %7, ptr %16, align 8
  call void @llvm.lifetime.start.p0(i64 8, ptr %17) #10
  %19 = call ptr @newNode(i64 noundef 152, i32 noundef 372)
  store ptr %19, ptr %17, align 8
  call void @llvm.lifetime.start.p0(i64 8, ptr %18) #10
  %20 = load ptr, ptr %17, align 8
  %21 = getelementptr inbounds nuw %struct.Limit, ptr %20, i32 0, i32 0
  store ptr %21, ptr %18, align 8
  %22 = load ptr, ptr %9, align 8
  %23 = getelementptr inbounds nuw %struct.Plan, ptr %22, i32 0, i32 10
  %24 = load ptr, ptr %23, align 8
  %25 = load ptr, ptr %18, align 8
  %26 = getelementptr inbounds nuw %struct.Plan, ptr %25, i32 0, i32 10
  store ptr %24, ptr %26, align 8
  %27 = load ptr, ptr %18, align 8
  %28 = getelementptr inbounds nuw %struct.Plan, ptr %27, i32 0, i32 11
  store ptr null, ptr %28, align 8
  %29 = load ptr, ptr %9, align 8
  %30 = load ptr, ptr %18, align 8
  %31 = getelementptr inbounds nuw %struct.Plan, ptr %30, i32 0, i32 12
  store ptr %29, ptr %31, align 8
  %32 = load ptr, ptr %18, align 8
  %33 = getelementptr inbounds nuw %struct.Plan, ptr %32, i32 0, i32 13
  store ptr null, ptr %33, align 8
  %34 = load ptr, ptr %10, align 8
  %35 = load ptr, ptr %17, align 8
  %36 = getelementptr inbounds nuw %struct.Limit, ptr %35, i32 0, i32 1
  store ptr %34, ptr %36, align 8
  %37 = load ptr, ptr %11, align 8
  %38 = load ptr, ptr %17, align 8
  %39 = getelementptr inbounds nuw %struct.Limit, ptr %38, i32 0, i32 2
  store ptr %37, ptr %39, align 8
  %40 = load i32, ptr %12, align 4
  %41 = load ptr, ptr %17, align 8
  %42 = getelementptr inbounds nuw %struct.Limit, ptr %41, i32 0, i32 3
  store i32 %40, ptr %42, align 8
  %43 = load i32, ptr %13, align 4
  %44 = load ptr, ptr %17, align 8
  %45 = getelementptr inbounds nuw %struct.Limit, ptr %44, i32 0, i32 4
  store i32 %43, ptr %45, align 4
  %46 = load ptr, ptr %14, align 8
  %47 = load ptr, ptr %17, align 8
  %48 = getelementptr inbounds nuw %struct.Limit, ptr %47, i32 0, i32 5
  store ptr %46, ptr %48, align 8
  %49 = load ptr, ptr %15, align 8
  %50 = load ptr, ptr %17, align 8
  %51 = getelementptr inbounds nuw %struct.Limit, ptr %50, i32 0, i32 6
  store ptr %49, ptr %51, align 8
  %52 = load ptr, ptr %16, align 8
  %53 = load ptr, ptr %17, align 8
  %54 = getelementptr inbounds nuw %struct.Limit, ptr %53, i32 0, i32 7
  store ptr %52, ptr %54, align 8
  %55 = load ptr, ptr %17, align 8
  call void @llvm.lifetime.end.p0(i64 8, ptr %18) #10
  call void @llvm.lifetime.end.p0(i64 8, ptr %17) #10
  ret ptr %55
}

; Function Attrs: nounwind uwtable
define internal ptr @create_minmaxagg_plan(ptr noundef %0, ptr noundef %1) #0 {
  %3 = alloca ptr, align 8
  %4 = alloca ptr, align 8
  %5 = alloca ptr, align 8
  %6 = alloca ptr, align 8
  %7 = alloca ptr, align 8
  %8 = alloca %struct.ForEachState, align 8
  %9 = alloca ptr, align 8
  %10 = alloca ptr, align 8
  %11 = alloca ptr, align 8
  %12 = alloca ptr, align 8
  store ptr %0, ptr %3, align 8
  store ptr %1, ptr %4, align 8
  call void @llvm.lifetime.start.p0(i64 8, ptr %5) #10
  call void @llvm.lifetime.start.p0(i64 8, ptr %6) #10
  call void @llvm.lifetime.start.p0(i64 8, ptr %7) #10
  call void @llvm.lifetime.start.p0(i64 16, ptr %8) #10
  %13 = getelementptr inbounds nuw %struct.ForEachState, ptr %8, i32 0, i32 0
  %14 = load ptr, ptr %4, align 8
  %15 = getelementptr inbounds nuw %struct.MinMaxAggPath, ptr %14, i32 0, i32 1
  %16 = load ptr, ptr %15, align 8
  store ptr %16, ptr %13, align 8
  %17 = getelementptr inbounds nuw %struct.ForEachState, ptr %8, i32 0, i32 1
  store i32 0, ptr %17, align 8
  %18 = getelementptr i8, ptr %8, i64 12
  call void @llvm.memset.p0.i64(ptr align 4 %18, i8 0, i64 4, i1 false)
  br label %19

19:                                               ; preds = %117, %2
  %20 = getelementptr inbounds nuw %struct.ForEachState, ptr %8, i32 0, i32 0
  %21 = load ptr, ptr %20, align 8
  %22 = icmp ne ptr %21, null
  br i1 %22, label %23, label %40

23:                                               ; preds = %19
  %24 = getelementptr inbounds nuw %struct.ForEachState, ptr %8, i32 0, i32 1
  %25 = load i32, ptr %24, align 8
  %26 = getelementptr inbounds nuw %struct.ForEachState, ptr %8, i32 0, i32 0
  %27 = load ptr, ptr %26, align 8
  %28 = getelementptr inbounds nuw %struct.List, ptr %27, i32 0, i32 1
  %29 = load i32, ptr %28, align 4
  %30 = icmp slt i32 %25, %29
  br i1 %30, label %31, label %40

31:                                               ; preds = %23
  %32 = getelementptr inbounds nuw %struct.ForEachState, ptr %8, i32 0, i32 0
  %33 = load ptr, ptr %32, align 8
  %34 = getelementptr inbounds nuw %struct.List, ptr %33, i32 0, i32 3
  %35 = load ptr, ptr %34, align 8
  %36 = getelementptr inbounds nuw %struct.ForEachState, ptr %8, i32 0, i32 1
  %37 = load i32, ptr %36, align 8
  %38 = sext i32 %37 to i64
  %39 = getelementptr inbounds %union.ListCell, ptr %35, i64 %38
  store ptr %39, ptr %7, align 8
  br label %41

40:                                               ; preds = %23, %19
  store ptr null, ptr %7, align 8
  br label %41

41:                                               ; preds = %40, %31
  %42 = phi i32 [ 1, %31 ], [ 0, %40 ]
  %43 = icmp ne i32 %42, 0
  br i1 %43, label %45, label %44

44:                                               ; preds = %41
  call void @llvm.lifetime.end.p0(i64 16, ptr %8) #10
  br label %121

45:                                               ; preds = %41
  call void @llvm.lifetime.start.p0(i64 8, ptr %9) #10
  %46 = load ptr, ptr %7, align 8
  %47 = load ptr, ptr %46, align 8
  store ptr %47, ptr %9, align 8
  call void @llvm.lifetime.start.p0(i64 8, ptr %10) #10
  %48 = load ptr, ptr %9, align 8
  %49 = getelementptr inbounds nuw %struct.MinMaxAggInfo, ptr %48, i32 0, i32 4
  %50 = load ptr, ptr %49, align 8
  store ptr %50, ptr %10, align 8
  call void @llvm.lifetime.start.p0(i64 8, ptr %11) #10
  %51 = load ptr, ptr %10, align 8
  %52 = getelementptr inbounds nuw %struct.PlannerInfo, ptr %51, i32 0, i32 1
  %53 = load ptr, ptr %52, align 8
  store ptr %53, ptr %11, align 8
  call void @llvm.lifetime.start.p0(i64 8, ptr %12) #10
  %54 = load ptr, ptr %10, align 8
  %55 = load ptr, ptr %9, align 8
  %56 = getelementptr inbounds nuw %struct.MinMaxAggInfo, ptr %55, i32 0, i32 5
  %57 = load ptr, ptr %56, align 8
  %58 = call ptr @create_plan(ptr noundef %54, ptr noundef %57)
  store ptr %58, ptr %12, align 8
  %59 = load ptr, ptr %12, align 8
  %60 = load ptr, ptr %11, align 8
  %61 = getelementptr inbounds nuw %struct.Query, ptr %60, i32 0, i32 38
  %62 = load ptr, ptr %61, align 8
  %63 = load ptr, ptr %11, align 8
  %64 = getelementptr inbounds nuw %struct.Query, ptr %63, i32 0, i32 39
  %65 = load ptr, ptr %64, align 8
  %66 = load ptr, ptr %11, align 8
  %67 = getelementptr inbounds nuw %struct.Query, ptr %66, i32 0, i32 40
  %68 = load i32, ptr %67, align 8
  %69 = call ptr @make_limit(ptr noundef %59, ptr noundef %62, ptr noundef %65, i32 noundef %68, i32 noundef 0, ptr noundef null, ptr noundef null, ptr noundef null)
  store ptr %69, ptr %12, align 8
  %70 = load ptr, ptr %9, align 8
  %71 = getelementptr inbounds nuw %struct.MinMaxAggInfo, ptr %70, i32 0, i32 5
  %72 = load ptr, ptr %71, align 8
  %73 = getelementptr inbounds nuw %struct.Path, ptr %72, i32 0, i32 9
  %74 = load i32, ptr %73, align 8
  %75 = load ptr, ptr %12, align 8
  %76 = getelementptr inbounds nuw %struct.Plan, ptr %75, i32 0, i32 1
  store i32 %74, ptr %76, align 4
  %77 = load ptr, ptr %9, align 8
  %78 = getelementptr inbounds nuw %struct.MinMaxAggInfo, ptr %77, i32 0, i32 5
  %79 = load ptr, ptr %78, align 8
  %80 = getelementptr inbounds nuw %struct.Path, ptr %79, i32 0, i32 10
  %81 = load double, ptr %80, align 8
  %82 = load ptr, ptr %12, align 8
  %83 = getelementptr inbounds nuw %struct.Plan, ptr %82, i32 0, i32 2
  store double %81, ptr %83, align 8
  %84 = load ptr, ptr %9, align 8
  %85 = getelementptr inbounds nuw %struct.MinMaxAggInfo, ptr %84, i32 0, i32 6
  %86 = load double, ptr %85, align 8
  %87 = load ptr, ptr %12, align 8
  %88 = getelementptr inbounds nuw %struct.Plan, ptr %87, i32 0, i32 3
  store double %86, ptr %88, align 8
  %89 = load ptr, ptr %12, align 8
  %90 = getelementptr inbounds nuw %struct.Plan, ptr %89, i32 0, i32 4
  store double 1.000000e+00, ptr %90, align 8
  %91 = load ptr, ptr %9, align 8
  %92 = getelementptr inbounds nuw %struct.MinMaxAggInfo, ptr %91, i32 0, i32 5
  %93 = load ptr, ptr %92, align 8
  %94 = getelementptr inbounds nuw %struct.Path, ptr %93, i32 0, i32 3
  %95 = load ptr, ptr %94, align 8
  %96 = getelementptr inbounds nuw %struct.PathTarget, ptr %95, i32 0, i32 4
  %97 = load i32, ptr %96, align 8
  %98 = load ptr, ptr %12, align 8
  %99 = getelementptr inbounds nuw %struct.Plan, ptr %98, i32 0, i32 5
  store i32 %97, ptr %99, align 8
  %100 = load ptr, ptr %12, align 8
  %101 = getelementptr inbounds nuw %struct.Plan, ptr %100, i32 0, i32 6
  store i8 0, ptr %101, align 4
  %102 = load ptr, ptr %9, align 8
  %103 = getelementptr inbounds nuw %struct.MinMaxAggInfo, ptr %102, i32 0, i32 5
  %104 = load ptr, ptr %103, align 8
  %105 = getelementptr inbounds nuw %struct.Path, ptr %104, i32 0, i32 6
  %106 = load i8, ptr %105, align 1, !range !4, !noundef !5
  %107 = trunc i8 %106 to i1
  %108 = load ptr, ptr %12, align 8
  %109 = getelementptr inbounds nuw %struct.Plan, ptr %108, i32 0, i32 7
  %110 = zext i1 %107 to i8
  store i8 %110, ptr %109, align 1
  %111 = load ptr, ptr %3, align 8
  %112 = load ptr, ptr %10, align 8
  %113 = load ptr, ptr %12, align 8
  %114 = load ptr, ptr %9, align 8
  %115 = getelementptr inbounds nuw %struct.MinMaxAggInfo, ptr %114, i32 0, i32 7
  %116 = load ptr, ptr %115, align 8
  call void @SS_make_initplan_from_plan(ptr noundef %111, ptr noundef %112, ptr noundef %113, ptr noundef %116)
  call void @llvm.lifetime.end.p0(i64 8, ptr %12) #10
  call void @llvm.lifetime.end.p0(i64 8, ptr %11) #10
  call void @llvm.lifetime.end.p0(i64 8, ptr %10) #10
  call void @llvm.lifetime.end.p0(i64 8, ptr %9) #10
  br label %117

117:                                              ; preds = %45
  %118 = getelementptr inbounds nuw %struct.ForEachState, ptr %8, i32 0, i32 1
  %119 = load i32, ptr %118, align 8
  %120 = add i32 %119, 1
  store i32 %120, ptr %118, align 8
  br label %19, !llvm.loop !10

121:                                              ; preds = %44
  %122 = load ptr, ptr %3, align 8
  %123 = load ptr, ptr %4, align 8
  %124 = getelementptr inbounds nuw %struct.MinMaxAggPath, ptr %123, i32 0, i32 0
  %125 = call ptr @build_path_tlist(ptr noundef %122, ptr noundef %124)
  store ptr %125, ptr %6, align 8
  %126 = load ptr, ptr %6, align 8
  %127 = load ptr, ptr %4, align 8
  %128 = getelementptr inbounds nuw %struct.MinMaxAggPath, ptr %127, i32 0, i32 2
  %129 = load ptr, ptr %128, align 8
  %130 = call ptr @make_result(ptr noundef %126, ptr noundef %129, ptr noundef null)
  store ptr %130, ptr %5, align 8
  %131 = load ptr, ptr %5, align 8
  %132 = getelementptr inbounds nuw %struct.Result, ptr %131, i32 0, i32 0
  %133 = load ptr, ptr %4, align 8
  call void @copy_generic_path_info(ptr noundef %132, ptr noundef %133)
  %134 = load ptr, ptr %4, align 8
  %135 = getelementptr inbounds nuw %struct.MinMaxAggPath, ptr %134, i32 0, i32 1
  %136 = load ptr, ptr %135, align 8
  %137 = load ptr, ptr %3, align 8
  %138 = getelementptr inbounds nuw %struct.PlannerInfo, ptr %137, i32 0, i32 55
  store ptr %136, ptr %138, align 8
  %139 = load ptr, ptr %5, align 8
  call void @llvm.lifetime.end.p0(i64 8, ptr %7) #10
  call void @llvm.lifetime.end.p0(i64 8, ptr %6) #10
  call void @llvm.lifetime.end.p0(i64 8, ptr %5) #10
  ret ptr %139
}