; Function Attrs: nounwind uwtable
define internal fastcc noundef ptr @create_minmaxagg_plan(ptr noundef %0, ptr noundef readonly captures(none) %1) unnamed_addr #0 {
  %3 = getelementptr inbounds nuw i8, ptr %1, i64 80
  %4 = load ptr, ptr %3, align 8
  %5 = getelementptr inbounds nuw i8, ptr %4, i64 4
  %.not = icmp eq ptr %4, null
  br i1 %.not, label %._crit_edge, label %.lr.ph

.lr.ph:                                           ; preds = %2
  %6 = getelementptr inbounds nuw i8, ptr %4, i64 16
  %7 = load i32, ptr %5, align 4
  %8 = icmp sgt i32 %7, 0
  br i1 %8, label %.lr.ph47, label %._crit_edge

._crit_edge:                                      ; preds = %.lr.ph47, %.lr.ph, %2
  %9 = tail call fastcc ptr @build_path_tlist(ptr noundef %0, ptr noundef %1)
  %10 = getelementptr inbounds nuw i8, ptr %1, i64 88
  %11 = load ptr, ptr %10, align 8
  %12 = tail call noundef ptr @palloc0(i64 noundef 112) #12
  store i32 330, ptr %12, align 4
  %13 = getelementptr inbounds nuw i8, ptr %12, i64 48
  store ptr %9, ptr %13, align 8
  %14 = getelementptr inbounds nuw i8, ptr %12, i64 56
  %15 = getelementptr inbounds nuw i8, ptr %12, i64 104
  tail call void @llvm.memset.p0.i64(ptr noundef nonnull align 8 dereferenceable(24) %14, i8 0, i64 24, i1 false)
  store ptr %11, ptr %15, align 8
  %16 = getelementptr inbounds nuw i8, ptr %1, i64 48
  %17 = load i32, ptr %16, align 8
  %18 = getelementptr inbounds nuw i8, ptr %12, i64 4
  store i32 %17, ptr %18, align 4
  %19 = getelementptr inbounds nuw i8, ptr %1, i64 56
  %20 = load double, ptr %19, align 8
  %21 = getelementptr inbounds nuw i8, ptr %12, i64 8
  store double %20, ptr %21, align 8
  %22 = getelementptr inbounds nuw i8, ptr %1, i64 64
  %23 = load double, ptr %22, align 8
  %24 = getelementptr inbounds nuw i8, ptr %12, i64 16
  store double %23, ptr %24, align 8
  %25 = getelementptr inbounds nuw i8, ptr %1, i64 40
  %26 = load double, ptr %25, align 8
  %27 = getelementptr inbounds nuw i8, ptr %12, i64 24
  store double %26, ptr %27, align 8
  %28 = getelementptr inbounds nuw i8, ptr %1, i64 16
  %29 = load ptr, ptr %28, align 8
  %30 = getelementptr inbounds nuw i8, ptr %29, i64 40
  %31 = load i32, ptr %30, align 8
  %32 = getelementptr inbounds nuw i8, ptr %12, i64 32
  store i32 %31, ptr %32, align 8
  %33 = getelementptr inbounds nuw i8, ptr %1, i64 32
  %34 = load i8, ptr %33, align 8, !range !4, !noundef !5
  %35 = getelementptr inbounds nuw i8, ptr %12, i64 36
  store i8 %34, ptr %35, align 4
  %36 = getelementptr inbounds nuw i8, ptr %1, i64 33
  %37 = load i8, ptr %36, align 1, !range !4, !noundef !5
  %38 = getelementptr inbounds nuw i8, ptr %12, i64 37
  store i8 %37, ptr %38, align 1
  %39 = load ptr, ptr %3, align 8
  %40 = getelementptr inbounds nuw i8, ptr %0, i64 552
  store ptr %39, ptr %40, align 8
  ret ptr %12

.lr.ph47:                                         ; preds = %.lr.ph, %.lr.ph47
  %indvars.iv46 = phi i64 [ %indvars.iv.next, %.lr.ph47 ], [ 0, %.lr.ph ]
  %41 = load ptr, ptr %6, align 8
  %42 = getelementptr inbounds nuw %union.ListCell, ptr %41, i64 %indvars.iv46
  %43 = load ptr, ptr %42, align 8
  %44 = getelementptr inbounds nuw i8, ptr %43, i64 24
  %45 = load ptr, ptr %44, align 8
  %46 = getelementptr inbounds nuw i8, ptr %45, i64 8
  %47 = load ptr, ptr %46, align 8
  %48 = getelementptr inbounds nuw i8, ptr %43, i64 32
  %49 = load ptr, ptr %48, align 8
  %50 = tail call ptr @create_plan(ptr noundef %45, ptr noundef %49)
  %51 = getelementptr inbounds nuw i8, ptr %47, i64 216
  %52 = load ptr, ptr %51, align 8
  %53 = getelementptr inbounds nuw i8, ptr %47, i64 224
  %54 = load ptr, ptr %53, align 8
  %55 = getelementptr inbounds nuw i8, ptr %47, i64 232
  %56 = load i32, ptr %55, align 8
  %57 = tail call noundef ptr @palloc0(i64 noundef 152) #12
  store i32 372, ptr %57, align 4
  %58 = getelementptr inbounds nuw i8, ptr %50, i64 48
  %59 = load ptr, ptr %58, align 8
  %60 = getelementptr inbounds nuw i8, ptr %57, i64 48
  store ptr %59, ptr %60, align 8
  %61 = getelementptr inbounds nuw i8, ptr %57, i64 56
  store ptr null, ptr %61, align 8
  %62 = getelementptr inbounds nuw i8, ptr %57, i64 64
  store ptr %50, ptr %62, align 8
  %63 = getelementptr inbounds nuw i8, ptr %57, i64 72
  store ptr null, ptr %63, align 8
  %64 = getelementptr inbounds nuw i8, ptr %57, i64 104
  store ptr %52, ptr %64, align 8
  %65 = getelementptr inbounds nuw i8, ptr %57, i64 112
  store ptr %54, ptr %65, align 8
  %66 = getelementptr inbounds nuw i8, ptr %57, i64 120
  store i32 %56, ptr %66, align 8
  %67 = getelementptr inbounds nuw i8, ptr %57, i64 124
  tail call void @llvm.memset.p0.i64(ptr noundef nonnull align 4 dereferenceable(28) %67, i8 0, i64 28, i1 false)
  %68 = load ptr, ptr %48, align 8
  %69 = getelementptr inbounds nuw i8, ptr %68, i64 48
  %70 = load i32, ptr %69, align 8
  %71 = getelementptr inbounds nuw i8, ptr %57, i64 4
  store i32 %70, ptr %71, align 4
  %72 = load ptr, ptr %48, align 8
  %73 = getelementptr inbounds nuw i8, ptr %72, i64 56
  %74 = load double, ptr %73, align 8
  %75 = getelementptr inbounds nuw i8, ptr %57, i64 8
  store double %74, ptr %75, align 8
  %76 = getelementptr inbounds nuw i8, ptr %43, i64 40
  %77 = load double, ptr %76, align 8
  %78 = getelementptr inbounds nuw i8, ptr %57, i64 16
  store double %77, ptr %78, align 8
  %79 = getelementptr inbounds nuw i8, ptr %57, i64 24
  store double 1.000000e+00, ptr %79, align 8
  %80 = load ptr, ptr %48, align 8
  %81 = getelementptr inbounds nuw i8, ptr %80, i64 16
  %82 = load ptr, ptr %81, align 8
  %83 = getelementptr inbounds nuw i8, ptr %82, i64 40
  %84 = load i32, ptr %83, align 8
  %85 = getelementptr inbounds nuw i8, ptr %57, i64 32
  store i32 %84, ptr %85, align 8
  %86 = getelementptr inbounds nuw i8, ptr %57, i64 36
  store i8 0, ptr %86, align 4
  %87 = load ptr, ptr %48, align 8
  %88 = getelementptr inbounds nuw i8, ptr %87, i64 33
  %89 = load i8, ptr %88, align 1, !range !4, !noundef !5
  %90 = getelementptr inbounds nuw i8, ptr %57, i64 37
  store i8 %89, ptr %90, align 1
  %91 = getelementptr inbounds nuw i8, ptr %43, i64 48
  %92 = load ptr, ptr %91, align 8
  tail call void @SS_make_initplan_from_plan(ptr noundef %0, ptr noundef %45, ptr noundef nonnull %57, ptr noundef %92) #12
  %indvars.iv.next = add nuw nsw i64 %indvars.iv46, 1
  %93 = load i32, ptr %5, align 4
  %94 = sext i32 %93 to i64
  %95 = icmp slt i64 %indvars.iv.next, %94
  br i1 %95, label %.lr.ph47, label %._crit_edge
}